target datalayout = "e-m:e-p270:32:32-p271:32:32-p272:64:64-i64:64-i128:128-f80:128-n8:16:32:64-S128"
target triple = "x86_64-pc-linux-gnu"

%struct.mbedtls_md_context_t = type { ptr, ptr, ptr }
%struct.mbedtls_md_info_t = type { i32, i8, i8 }

; Function Attrs: nounwind uwtable
define hidden i32 @mbedtls_md_clone(ptr noundef %0, ptr noundef %1) #0 {
  %3 = alloca i32, align 4
  %4 = alloca ptr, align 8
  %5 = alloca ptr, align 8
  store ptr %0, ptr %4, align 8, !tbaa !7
  store ptr %1, ptr %5, align 8, !tbaa !7
  %6 = load ptr, ptr %4, align 8, !tbaa !7
  %7 = icmp eq ptr %6, null
  br i1 %7, label %29, label %8

8:                                                ; preds = %2
  %9 = load ptr, ptr %4, align 8, !tbaa !7
  %10 = getelementptr inbounds nuw %struct.mbedtls_md_context_t, ptr %9, i32 0, i32 0
  %11 = load ptr, ptr %10, align 8, !tbaa !10
  %12 = icmp eq ptr %11, null
  br i1 %12, label %29, label %13

13:                                               ; preds = %8
  %14 = load ptr, ptr %5, align 8, !tbaa !7
  %15 = icmp eq ptr %14, null
  br i1 %15, label %29, label %16

16:                                               ; preds = %13
  %17 = load ptr, ptr %5, align 8, !tbaa !7
  %18 = getelementptr inbounds nuw %struct.mbedtls_md_context_t, ptr %17, i32 0, i32 0
  %19 = load ptr, ptr %18, align 8, !tbaa !10
  %20 = icmp eq ptr %19, null
  br i1 %20, label %29, label %21

21:                                               ; preds = %16
  %22 = load ptr, ptr %4, align 8, !tbaa !7
  %23 = getelementptr inbounds nuw %struct.mbedtls_md_context_t, ptr %22, i32 0, i32 0
  %24 = load ptr, ptr %23, align 8, !tbaa !10
  %25 = load ptr, ptr %5, align 8, !tbaa !7
  %26 = getelementptr inbounds nuw %struct.mbedtls_md_context_t, ptr %25, i32 0, i32 0
  %27 = load ptr, ptr %26, align 8, !tbaa !10
  %28 = icmp ne ptr %24, %27
  br i1 %28, label %29, label %30

29:                                               ; preds = %21, %16, %13, %8, %2
  store i32 -20736, ptr %3, align 4
  br label %94

30:                                               ; preds = %21
  %31 = load ptr, ptr %5, align 8, !tbaa !7
  %32 = getelementptr inbounds nuw %struct.mbedtls_md_context_t, ptr %31, i32 0, i32 0
  %33 = load ptr, ptr %32, align 8, !tbaa !10
  %34 = getelementptr inbounds nuw %struct.mbedtls_md_info_t, ptr %33, i32 0, i32 0
  %35 = load i32, ptr %34, align 4, !tbaa !14
  switch i32 %35, label %92 [
    i32 3, label %36
    i32 4, label %43
    i32 5, label %50
    i32 8, label %57
    i32 9, label %64
    i32 10, label %71
    i32 11, label %78
    i32 16, label %85
    i32 17, label %85
    i32 18, label %85
    i32 19, label %85
  ]

36:                                               ; preds = %30
  %37 = load ptr, ptr %4, align 8, !tbaa !7
  %38 = getelementptr inbounds nuw %struct.mbedtls_md_context_t, ptr %37, i32 0, i32 1
  %39 = load ptr, ptr %38, align 8, !tbaa !13
  %40 = load ptr, ptr %5, align 8, !tbaa !7
  %41 = getelementptr inbounds nuw %struct.mbedtls_md_context_t, ptr %40, i32 0, i32 1
  %42 = load ptr, ptr %41, align 8, !tbaa !13
  call void @mbedtls_md5_clone(ptr noundef %39, ptr noundef %42)
  br label %93

43:                                               ; preds = %30
  %44 = load ptr, ptr %4, align 8, !tbaa !7
  %45 = getelementptr inbounds nuw %struct.mbedtls_md_context_t, ptr %44, i32 0, i32 1
  %46 = load ptr, ptr %45, align 8, !tbaa !13
  %47 = load ptr, ptr %5, align 8, !tbaa !7
  %48 = getelementptr inbounds nuw %struct.mbedtls_md_context_t, ptr %47, i32 0, i32 1
  %49 = load ptr, ptr %48, align 8, !tbaa !13
  call void @mbedtls_ripemd160_clone(ptr noundef %46, ptr noundef %49)
  br label %93

50:                                               ; preds = %30
  %51 = load ptr, ptr %4, align 8, !tbaa !7
  %52 = getelementptr inbounds nuw %struct.mbedtls_md_context_t, ptr %51, i32 0, i32 1
  %53 = load ptr, ptr %52, align 8, !tbaa !13
  %54 = load ptr, ptr %5, align 8, !tbaa !7
  %55 = getelementptr inbounds nuw %struct.mbedtls_md_context_t, ptr %54, i32 0, i32 1
  %56 = load ptr, ptr %55, align 8, !tbaa !13
  call void @mbedtls_sha1_clone(ptr noundef %53, ptr noundef %56)
  br label %93

57:                                               ; preds = %30
  %58 = load ptr, ptr %4, align 8, !tbaa !7
  %59 = getelementptr inbounds nuw %struct.mbedtls_md_context_t, ptr %58, i32 0, i32 1
  %60 = load ptr, ptr %59, align 8, !tbaa !13
  %61 = load ptr, ptr %5, align 8, !tbaa !7
  %62 = getelementptr inbounds nuw %struct.mbedtls_md_context_t, ptr %61, i32 0, i32 1
  %63 = load ptr, ptr %62, align 8, !tbaa !13
  call void @mbedtls_sha256_clone(ptr noundef %60, ptr noundef %63)
  br label %93

64:                                               ; preds = %30
  %65 = load ptr, ptr %4, align 8, !tbaa !7
  %66 = getelementptr inbounds nuw %struct.mbedtls_md_context_t, ptr %65, i32 0, i32 1
  %67 = load ptr, ptr %66, align 8, !tbaa !13
  %68 = load ptr, ptr %5, align 8, !tbaa !7
  %69 = getelementptr inbounds nuw %struct.mbedtls_md_context_t, ptr %68, i32 0, i32 1
  %70 = load ptr, ptr %69, align 8, !tbaa !13
  call void @mbedtls_sha256_clone(ptr noundef %67, ptr noundef %70)
  br label %93

71:                                               ; preds = %30
  %72 = load ptr, ptr %4, align 8, !tbaa !7
  %73 = getelementptr inbounds nuw %struct.mbedtls_md_context_t, ptr %72, i32 0, i32 1
  %74 = load ptr, ptr %73, align 8, !tbaa !13
  %75 = load ptr, ptr %5, align 8, !tbaa !7
  %76 = getelementptr inbounds nuw %struct.mbedtls_md_context_t, ptr %75, i32 0, i32 1
  %77 = load ptr, ptr %76, align 8, !tbaa !13
  call void @mbedtls_sha512_clone(ptr noundef %74, ptr noundef %77)
  br label %93

78:                                               ; preds = %30
  %79 = load ptr, ptr %4, align 8, !tbaa !7
  %80 = getelementptr inbounds nuw %struct.mbedtls_md_context_t, ptr %79, i32 0, i32 1
  %81 = load ptr, ptr %80, align 8, !tbaa !13
  %82 = load ptr, ptr %5, align 8, !tbaa !7
  %83 = getelementptr inbounds nuw %struct.mbedtls_md_context_t, ptr %82, i32 0, i32 1
  %84 = load ptr, ptr %83, align 8, !tbaa !13
  call void @mbedtls_sha512_clone(ptr noundef %81, ptr noundef %84)
  br label %93

85:                                               ; preds = %30, %30, %30, %30
  %86 = load ptr, ptr %4, align 8, !tbaa !7
  %87 = getelementptr inbounds nuw %struct.mbedtls_md_context_t, ptr %86, i32 0, i32 1
  %88 = load ptr, ptr %87, align 8, !tbaa !13
  %89 = load ptr, ptr %5, align 8, !tbaa !7
  %90 = getelementptr inbounds nuw %struct.mbedtls_md_context_t, ptr %89, i32 0, i32 1
  %91 = load ptr, ptr %90, align 8, !tbaa !13
  call void @mbedtls_sha3_clone(ptr noundef %88, ptr noundef %91)
  br label %93

92:                                               ; preds = %30
  store i32 -20736, ptr %3, align 4
  br label %94

93:                                               ; preds = %85, %78, %71, %64, %57, %50, %43, %36
  store i32 0, ptr %3, align 4
  br label %94

94:                                               ; preds = %93, %92, %29
  %95 = load i32, ptr %3, align 4
  ret i32 %95
}