; Function Attrs: nounwind uwtable
define hidden range(i32 -20736, 1) i32 @mbedtls_md_clone(ptr noundef readonly %0, ptr noundef readonly %1) local_unnamed_addr #3 {
  %3 = icmp eq ptr %0, null
  br i1 %3, label %52, label %4

4:                                                ; preds = %2
  %5 = load ptr, ptr %0, align 8, !tbaa !3
  %6 = icmp eq ptr %5, null
  %7 = icmp eq ptr %1, null
  %or.cond = or i1 %7, %6
  br i1 %or.cond, label %52, label %8

8:                                                ; preds = %4
  %9 = load ptr, ptr %1, align 8, !tbaa !3
  %.not = icmp eq ptr %5, %9
  br i1 %.not, label %10, label %52

10:                                               ; preds = %8
  %11 = load i32, ptr %9, align 4, !tbaa !10
  switch i32 %11, label %52 [
    i32 3, label %12
    i32 4, label %17
    i32 5, label %22
    i32 8, label %27
    i32 9, label %32
    i32 10, label %37
    i32 11, label %42
    i32 16, label %47
    i32 17, label %47
    i32 18, label %47
    i32 19, label %47
  ]

12:                                               ; preds = %10
  %13 = getelementptr inbounds nuw i8, ptr %0, i64 8
  %14 = load ptr, ptr %13, align 8, !tbaa !9
  %15 = getelementptr inbounds nuw i8, ptr %1, i64 8
  %16 = load ptr, ptr %15, align 8, !tbaa !9
  tail call void @mbedtls_md5_clone(ptr noundef %14, ptr noundef %16) #14
  br label %52

17:                                               ; preds = %10
  %18 = getelementptr inbounds nuw i8, ptr %0, i64 8
  %19 = load ptr, ptr %18, align 8, !tbaa !9
  %20 = getelementptr inbounds nuw i8, ptr %1, i64 8
  %21 = load ptr, ptr %20, align 8, !tbaa !9
  tail call void @mbedtls_ripemd160_clone(ptr noundef %19, ptr noundef %21) #14
  br label %52

22:                                               ; preds = %10
  %23 = getelementptr inbounds nuw i8, ptr %0, i64 8
  %24 = load ptr, ptr %23, align 8, !tbaa !9
  %25 = getelementptr inbounds nuw i8, ptr %1, i64 8
  %26 = load ptr, ptr %25, align 8, !tbaa !9
  tail call void @mbedtls_sha1_clone(ptr noundef %24, ptr noundef %26) #14
  br label %52

27:                                               ; preds = %10
  %28 = getelementptr inbounds nuw i8, ptr %0, i64 8
  %29 = load ptr, ptr %28, align 8, !tbaa !9
  %30 = getelementptr inbounds nuw i8, ptr %1, i64 8
  %31 = load ptr, ptr %30, align 8, !tbaa !9
  tail call void @mbedtls_sha256_clone(ptr noundef %29, ptr noundef %31) #14
  br label %52

32:                                               ; preds = %10
  %33 = getelementptr inbounds nuw i8, ptr %0, i64 8
  %34 = load ptr, ptr %33, align 8, !tbaa !9
  %35 = getelementptr inbounds nuw i8, ptr %1, i64 8
  %36 = load ptr, ptr %35, align 8, !tbaa !9
  tail call void @mbedtls_sha256_clone(ptr noundef %34, ptr noundef %36) #14
  br label %52

37:                                               ; preds = %10
  %38 = getelementptr inbounds nuw i8, ptr %0, i64 8
  %39 = load ptr, ptr %38, align 8, !tbaa !9
  %40 = getelementptr inbounds nuw i8, ptr %1, i64 8
  %41 = load ptr, ptr %40, align 8, !tbaa !9
  tail call void @mbedtls_sha512_clone(ptr noundef %39, ptr noundef %41) #14
  br label %52

42:                                               ; preds = %10
  %43 = getelementptr inbounds nuw i8, ptr %0, i64 8
  %44 = load ptr, ptr %43, align 8, !tbaa !9
  %45 = getelementptr inbounds nuw i8, ptr %1, i64 8
  %46 = load ptr, ptr %45, align 8, !tbaa !9
  tail call void @mbedtls_sha512_clone(ptr noundef %44, ptr noundef %46) #14
  br label %52

47:                                               ; preds = %10, %10, %10, %10
  %48 = getelementptr inbounds nuw i8, ptr %0, i64 8
  %49 = load ptr, ptr %48, align 8, !tbaa !9
  %50 = getelementptr inbounds nuw i8, ptr %1, i64 8
  %51 = load ptr, ptr %50, align 8, !tbaa !9
  tail call void @mbedtls_sha3_clone(ptr noundef %49, ptr noundef %51) #14
  br label %52

52:                                               ; preds = %12, %17, %22, %27, %32, %37, %42, %47, %10, %2, %4, %8
  %.0 = phi i32 [ -20736, %8 ], [ -20736, %4 ], [ -20736, %2 ], [ -20736, %10 ], [ 0, %47 ], [ 0, %42 ], [ 0, %37 ], [ 0, %32 ], [ 0, %27 ], [ 0, %22 ], [ 0, %17 ], [ 0, %12 ]
  ret i32 %.0
}